; Function Attrs: mustprogress uwtable
define dso_local void @_ZNSt3__110__time_putC2ERKNS_12basic_stringIcNS_11char_traitsIcEENS_9allocatorIcEEEE(ptr noundef nonnull writeonly align 8 captures(none) dereferenceable(8) initializes((0, 8)) %0, ptr noundef nonnull align 8 dereferenceable(24) %1) unnamed_addr #2 align 2 personality ptr @__gxx_personality_v0 {
  %3 = alloca %"class.std::__1::basic_string", align 8
  %4 = load i8, ptr %1, align 8
  %5 = and i8 %4, 1
  %.not.i.i.i = icmp eq i8 %5, 0
  %6 = getelementptr inbounds nuw i8, ptr %1, i64 16
  %7 = load ptr, ptr %6, align 8
  %8 = getelementptr inbounds nuw i8, ptr %1, i64 1
  %9 = select i1 %.not.i.i.i, ptr %8, ptr %7
  %10 = tail call noundef ptr @newlocale(i32 noundef 8127, ptr noundef %9, ptr noundef null) #45
  store ptr %10, ptr %0, align 8, !tbaa !174
  %11 = icmp eq ptr %10, null
  br i1 %11, label %12, label %28

12:                                               ; preds = %2
  call void @llvm.lifetime.start.p0(i64 24, ptr nonnull %3) #45
  call void @_ZNSt3__1plIcNS_11char_traitsIcEENS_9allocatorIcEEEENS_12basic_stringIT_T0_T1_EEPKS6_RKS9_(ptr dead_on_unwind nonnull writable sret(%"class.std::__1::basic_string") align 8 %3, ptr noundef nonnull @.str.58, ptr noundef nonnull align 8 dereferenceable(24) %1)
  %13 = load i8, ptr %3, align 8
  %14 = and i8 %13, 1
  %.not.i.i.i4 = icmp eq i8 %14, 0
  %15 = getelementptr inbounds nuw i8, ptr %3, i64 16
  %16 = load ptr, ptr %15, align 8
  %17 = getelementptr inbounds nuw i8, ptr %3, i64 1
  %18 = select i1 %.not.i.i.i4, ptr %17, ptr %16
  invoke void @_ZNSt3__121__throw_runtime_errorEPKc(ptr noundef %18) #47
          to label %19 unwind label %20

19:                                               ; preds = %12
  unreachable

20:                                               ; preds = %12
  %21 = landingpad { ptr, i32 }
          cleanup
  %22 = load i8, ptr %3, align 8
  %23 = and i8 %22, 1
  %.not.i = icmp eq i8 %23, 0
  br i1 %.not.i, label %_ZNSt3__112basic_stringIcNS_11char_traitsIcEENS_9allocatorIcEEED2Ev.exit, label %24

24:                                               ; preds = %20
  %25 = load ptr, ptr %15, align 8, !tbaa !4
  %26 = load i64, ptr %3, align 8
  %27 = and i64 %26, -2
  call void @_ZdlPvm(ptr noundef %25, i64 noundef %27) #46
  br label %_ZNSt3__112basic_stringIcNS_11char_traitsIcEENS_9allocatorIcEEED2Ev.exit

_ZNSt3__112basic_stringIcNS_11char_traitsIcEENS_9allocatorIcEEED2Ev.exit: ; preds = %20, %24
  call void @llvm.lifetime.end.p0(i64 24, ptr nonnull %3) #45
  resume { ptr, i32 } %21

28:                                               ; preds = %2
  ret void
}